target datalayout = "e-m:e-p270:32:32-p271:32:32-p272:64:64-i64:64-i128:128-f80:128-n8:16:32:64-S128"
target triple = "x86_64-pc-linux-gnu"

@.str.30 = private unnamed_addr constant [2 x i8] c"w\00", align 1

; Function Attrs: mustprogress uwtable
define void @_Z13gmx_trr_closeP8t_fileio(ptr noundef %0) #0 {
  %2 = alloca ptr, align 8
  store ptr %0, ptr %2, align 8, !tbaa !11
  %3 = load ptr, ptr %2, align 8, !tbaa !11
  %4 = call noundef i32 @_Z13gmx_fio_closeP8t_fileio(ptr noundef %3)
  ret void
}

; Function Attrs: mustprogress uwtable
define noundef ptr @_Z12gmx_trr_openRKNSt10filesystem7__cxx114pathEPKc(ptr noundef nonnull align 8 dereferenceable(40) %0, ptr noundef %1) #0 {
  %3 = alloca ptr, align 8
  %4 = alloca ptr, align 8
  store ptr %0, ptr %3, align 8, !tbaa !4
  store ptr %1, ptr %4, align 8, !tbaa !13
  %5 = load ptr, ptr %3, align 8, !tbaa !4
  %6 = load ptr, ptr %4, align 8, !tbaa !13
  %7 = call noundef ptr @_Z12gmx_fio_openRKNSt10filesystem7__cxx114pathEPKc(ptr noundef nonnull align 8 dereferenceable(40) %5, ptr noundef %6)
  ret ptr %7
}

; Function Attrs: mustprogress uwtable
define void @_Z26gmx_trr_write_single_frameRKNSt10filesystem7__cxx114pathElffPA3_KfiS6_S6_S6_(ptr noundef nonnull align 8 dereferenceable(40) %0, i64 noundef %1, float noundef %2, float noundef %3, ptr noundef %4, i32 noundef %5, ptr noundef %6, ptr noundef %7, ptr noundef %8) #0 {
  %10 = alloca ptr, align 8
  %11 = alloca i64, align 8
  %12 = alloca float, align 4
  %13 = alloca float, align 4
  %14 = alloca ptr, align 8
  %15 = alloca i32, align 4
  %16 = alloca ptr, align 8
  %17 = alloca ptr, align 8
  %18 = alloca ptr, align 8
  %19 = alloca ptr, align 8
  store ptr %0, ptr %10, align 8, !tbaa !4
  store i64 %1, ptr %11, align 8, !tbaa !49
  store float %2, ptr %12, align 4, !tbaa !89
  store float %3, ptr %13, align 4, !tbaa !89
  store ptr %4, ptr %14, align 8, !tbaa !90
  store i32 %5, ptr %15, align 4, !tbaa !19
  store ptr %6, ptr %16, align 8, !tbaa !90
  store ptr %7, ptr %17, align 8, !tbaa !90
  store ptr %8, ptr %18, align 8, !tbaa !90
  call void @llvm.lifetime.start.p0(i64 8, ptr %19) #12
  %20 = load ptr, ptr %10, align 8, !tbaa !4
  %21 = call noundef ptr @_Z12gmx_trr_openRKNSt10filesystem7__cxx114pathEPKc(ptr noundef nonnull align 8 dereferenceable(40) %20, ptr noundef @.str.30)
  store ptr %21, ptr %19, align 8, !tbaa !11
  %22 = load ptr, ptr %19, align 8, !tbaa !11
  %23 = load ptr, ptr %14, align 8, !tbaa !90
  %24 = load ptr, ptr %16, align 8, !tbaa !90
  %25 = load ptr, ptr %17, align 8, !tbaa !90
  %26 = load ptr, ptr %18, align 8, !tbaa !90
  %27 = call noundef zeroext i1 @_ZL12do_trr_frameP8t_fileiobPlPfS2_PA3_fPiS4_S4_S4_(ptr noundef %22, i1 noundef zeroext false, ptr noundef %11, ptr noundef %12, ptr noundef %13, ptr noundef %23, ptr noundef %15, ptr noundef %24, ptr noundef %25, ptr noundef %26)
  %28 = load ptr, ptr %19, align 8, !tbaa !11
  call void @_Z13gmx_trr_closeP8t_fileio(ptr noundef %28)
  call void @llvm.lifetime.end.p0(i64 8, ptr %19) #12
  ret void
}