; Function Attrs: mustprogress uwtable
define void @_Z26gmx_trr_write_single_frameRKNSt10filesystem7__cxx114pathElffPA3_KfiS6_S6_S6_(ptr noundef nonnull align 8 dereferenceable(40) %0, i64 noundef %1, float noundef %2, float noundef %3, ptr noundef %4, i32 noundef %5, ptr noundef %6, ptr noundef %7, ptr noundef %8) local_unnamed_addr #0 {
  %10 = alloca i64, align 8
  %11 = alloca float, align 4
  %12 = alloca float, align 4
  %13 = alloca i32, align 4
  store i64 %1, ptr %10, align 8, !tbaa !27
  store float %2, ptr %11, align 4, !tbaa !38
  store float %3, ptr %12, align 4, !tbaa !38
  store i32 %5, ptr %13, align 4, !tbaa !14
  %14 = tail call noundef ptr @_Z12gmx_fio_openRKNSt10filesystem7__cxx114pathEPKc(ptr noundef nonnull align 8 dereferenceable(40) %0, ptr noundef nonnull @.str.30)
  %15 = call fastcc noundef zeroext i1 @_ZL12do_trr_frameP8t_fileiobPlPfS2_PA3_fPiS4_S4_S4_(ptr noundef %14, i1 noundef zeroext false, ptr noundef nonnull %10, ptr noundef nonnull %11, ptr noundef nonnull %12, ptr noundef %4, ptr noundef nonnull %13, ptr noundef %6, ptr noundef %7, ptr noundef %8)
  %16 = tail call noundef i32 @_Z13gmx_fio_closeP8t_fileio(ptr noundef %14)
  ret void
}